target datalayout = "e-m:e-p270:32:32-p271:32:32-p272:64:64-i64:64-i128:128-f80:128-n8:16:32:64-S128"
target triple = "x86_64-unknown-linux-gnu"

%class.model_evaluator = type { ptr }
%class.rewriter_tpl = type { %class.rewriter_core, ptr, i32, %class.ptr_vector.1, %class.var_shifter, %class.inv_var_shifter, %class.obj_ref, %class.obj_ref.10, %class.obj_ref.10, %class.svector.11 }
%class.rewriter_core = type { ptr, ptr, i8, i8, %class.ptr_vector, ptr, %class.svector, %class.ref_vector, %class.ptr_vector, ptr, %class.ref_vector.3, %class.obj_hashtable, ptr, i32, %class.svector.8 }
%class.svector = type { %class.vector.0 }
%class.vector.0 = type { ptr }
%class.ref_vector = type { %class.ref_vector_core }
%class.ref_vector_core = type { %class.ref_manager_wrapper, %class.ptr_vector.1 }
%class.ref_manager_wrapper = type { ptr }
%class.ptr_vector = type { %class.vector }
%class.vector = type { ptr }
%class.ref_vector.3 = type { %class.ref_vector_core.4 }
%class.ref_vector_core.4 = type { %class.ref_manager_wrapper.5, %class.ptr_vector.6 }
%class.ref_manager_wrapper.5 = type { ptr }
%class.ptr_vector.6 = type { %class.vector.7 }
%class.vector.7 = type { ptr }
%class.obj_hashtable = type { %class.core_hashtable.base, [4 x i8] }
%class.core_hashtable.base = type <{ ptr, i32, i32, i32 }>
%class.svector.8 = type { %class.vector.9 }
%class.vector.9 = type { ptr }
%class.ptr_vector.1 = type { %class.vector.2 }
%class.vector.2 = type { ptr }
%class.var_shifter = type <{ %class.var_shifter_core, i32, i32, i32, [4 x i8] }>
%class.var_shifter_core = type { %class.rewriter_core }
%class.inv_var_shifter = type <{ %class.var_shifter_core, i32, [4 x i8] }>
%class.obj_ref = type { ptr, ptr }
%class.obj_ref.10 = type { ptr, ptr }
%class.svector.11 = type { %class.vector.12 }
%class.vector.12 = type { ptr }
%"struct.mev::evaluator_cfg" = type { ptr, ptr, %class.params_ref, %class.bool_rewriter, %class.arith_rewriter, %class.bv_rewriter, %class.array_rewriter, %class.datatype_rewriter, %class.pb_rewriter, %class.fpa_rewriter, %class.seq_rewriter, %class.recfun_rewriter, %class.array_util, %class.arith_util, %class.fpa_util, %"class.datatype::util", i64, i32, i8, i8, i8, i8, %class.obj_map.62, %class.ref_vector }
%class.params_ref = type { ptr }
%class.bool_rewriter = type { ptr, i8, i8, i8, i8, i8, i8, i32, i8, i32, i32, i8, %class.ptr_vector.1, %class.ptr_vector.1, %class.svector.11, %class.svector.11 }
%class.arith_rewriter = type { %class.poly_rewriter.base, i8, i8, i8, i8, i8, i8, i8, i8, i32 }
%class.poly_rewriter.base = type <{ %class.arith_rewriter_core.base, [5 x i8], ptr, %class.obj_map, i8, i8, [2 x i8], i32, i8, i8, i8, i8 }>
%class.arith_rewriter_core.base = type <{ ptr, %class.arith_util, %class.scoped_ptr, i8, i8, i8 }>
%class.scoped_ptr = type { ptr }
%class.obj_map = type { %class.core_hashtable.13 }
%class.core_hashtable.13 = type <{ ptr, i32, i32, i32, [4 x i8] }>
%class.bv_rewriter = type <{ %class.poly_rewriter.base.16, [4 x i8], %class.mk_extract_proc, %class.arith_util, i8, i8, i8, i8, i8, i8, i8, i8, i8, i8, i8, i8, i8, [3 x i8] }>
%class.poly_rewriter.base.16 = type <{ %class.bv_rewriter_core, ptr, %class.obj_map, i8, i8, [2 x i8], i32, i8, i8, i8, i8 }>
%class.bv_rewriter_core = type { ptr, %class.bv_util, %class.obj_ref }
%class.bv_util = type { %class.bv_recognizers, ptr, ptr }
%class.bv_recognizers = type { i32 }
%class.mk_extract_proc = type { ptr, i32, i32, ptr, ptr }
%class.array_rewriter = type <{ %class.array_util, i8, i8, i8, i8, i8, i8, [2 x i8] }>
%class.datatype_rewriter = type { %"class.datatype::util" }
%class.pb_rewriter = type { %class.pb_util, %class.vector.54, %class.ptr_vector.1 }
%class.pb_util = type { ptr, i32, %class.vector.54, %class.vector.55, %class.rational }
%class.vector.55 = type { ptr }
%class.rational = type { %class.mpq }
%class.mpq = type { %class.mpz, %class.mpz }
%class.mpz = type { i32, i8, ptr }
%class.vector.54 = type { ptr }
%class.fpa_rewriter = type <{ %class.fpa_util, ptr, i8, [7 x i8] }>
%class.seq_rewriter = type <{ %class.seq_util, %class.arith_util, %class.bool_rewriter, %class.re2automaton, %"class.seq_rewriter::op_cache", %class.ref_vector, %class.ref_vector, %class.ref_vector, i8, [7 x i8] }>
%class.seq_util = type { ptr, ptr, ptr, i32, [4 x i8], %"class.seq_util::str", %"class.seq_util::rex" }
%"class.seq_util::str" = type <{ ptr, ptr, i32, [4 x i8] }>
%"class.seq_util::rex" = type { ptr, ptr, i32, %class.vector.56, %class.ref_vector, %"struct.seq_util::rex::info", %"struct.seq_util::rex::info" }
%class.vector.56 = type { ptr }
%"struct.seq_util::rex::info" = type { i32, i8, i32, i32 }
%class.re2automaton = type { ptr, %class.sym_expr_manager, %class.seq_util, %class.scoped_ptr.57, %class.scoped_ptr.58, %class.scoped_ptr.59 }
%class.sym_expr_manager = type { i8 }
%class.scoped_ptr.57 = type { ptr }
%class.scoped_ptr.58 = type { ptr }
%class.scoped_ptr.59 = type { ptr }
%"class.seq_rewriter::op_cache" = type { i32, %class.ref_vector, %class.hashtable }
%class.hashtable = type { %class.core_hashtable.base.61, [4 x i8] }
%class.core_hashtable.base.61 = type <{ ptr, i32, i32, i32 }>
%class.recfun_rewriter = type { ptr, %"class.recfun::util" }
%"class.recfun::util" = type { ptr, i32, ptr }
%class.array_util = type { %class.array_recognizers, ptr }
%class.array_recognizers = type { i32 }
%class.arith_util = type { ptr, ptr }
%class.fpa_util = type { ptr, ptr, i32, %class.arith_util, %class.bv_util }
%"class.datatype::util" = type { ptr, i32, ptr, %class.obj_map.17, %class.obj_map.22, %class.obj_map.27, %class.obj_map.32, %class.obj_map.32, %class.obj_map.32, %class.obj_map.37, %class.obj_map.37, %class.obj_map.37, %class.ref_vector.42, %class.ref_vector_core.47, %class.ptr_vector.50, i32, %class.ptr_vector.52 }
%class.obj_map.17 = type { %class.core_hashtable.18 }
%class.core_hashtable.18 = type <{ ptr, i32, i32, i32, [4 x i8] }>
%class.obj_map.22 = type { %class.core_hashtable.23 }
%class.core_hashtable.23 = type <{ ptr, i32, i32, i32, [4 x i8] }>
%class.obj_map.27 = type { %class.core_hashtable.28 }
%class.core_hashtable.28 = type <{ ptr, i32, i32, i32, [4 x i8] }>
%class.obj_map.32 = type { %class.core_hashtable.33 }
%class.core_hashtable.33 = type <{ ptr, i32, i32, i32, [4 x i8] }>
%class.obj_map.37 = type { %class.core_hashtable.38 }
%class.core_hashtable.38 = type <{ ptr, i32, i32, i32, [4 x i8] }>
%class.ref_vector.42 = type { %class.ref_vector_core.43 }
%class.ref_vector_core.43 = type { %class.ref_manager_wrapper.44, %class.ptr_vector.45 }
%class.ref_manager_wrapper.44 = type { ptr }
%class.ptr_vector.45 = type { %class.vector.46 }
%class.vector.46 = type { ptr }
%class.ref_vector_core.47 = type { %class.ptr_vector.48 }
%class.ptr_vector.48 = type { %class.vector.49 }
%class.vector.49 = type { ptr }
%class.ptr_vector.50 = type { %class.vector.51 }
%class.vector.51 = type { ptr }
%class.ptr_vector.52 = type { %class.vector.53 }
%class.vector.53 = type { ptr }
%class.obj_map.62 = type { %class.core_hashtable.63 }
%class.core_hashtable.63 = type <{ ptr, i32, i32, i32, [4 x i8] }>

; Function Attrs: mustprogress uwtable
define hidden void @_ZN15model_evaluator11updt_paramsERK10params_ref(ptr noundef nonnull align 8 dereferenceable(8) %this, ptr noundef nonnull align 8 dereferenceable(8) %p) #4 align 2 {
entry:
  %this.addr = alloca ptr, align 8
  %p.addr = alloca ptr, align 8
  store ptr %this, ptr %this.addr, align 8
  store ptr %p, ptr %p.addr, align 8
  %this1 = load ptr, ptr %this.addr, align 8
  %m_imp = getelementptr inbounds %class.model_evaluator, ptr %this1, i32 0, i32 0
  %0 = load ptr, ptr %m_imp, align 8
  %call = call noundef nonnull align 8 dereferenceable(1800) ptr @_ZN12rewriter_tplIN3mev13evaluator_cfgEE3cfgEv(ptr noundef nonnull align 8 dereferenceable(536) %0)
  %1 = load ptr, ptr %p.addr, align 8
  call void @_ZN3mev13evaluator_cfg11updt_paramsERK10params_ref(ptr noundef nonnull align 8 dereferenceable(1800) %call, ptr noundef nonnull align 8 dereferenceable(8) %1)
  ret void
}

; Function Attrs: mustprogress uwtable
define hidden void @_ZN15model_evaluator5resetERK10params_ref(ptr noundef nonnull align 8 dereferenceable(8) %this, ptr noundef nonnull align 8 dereferenceable(8) %p) #4 align 2 {
entry:
  %this.addr = alloca ptr, align 8
  %p.addr = alloca ptr, align 8
  store ptr %this, ptr %this.addr, align 8
  store ptr %p, ptr %p.addr, align 8
  %this1 = load ptr, ptr %this.addr, align 8
  %m_imp = getelementptr inbounds %class.model_evaluator, ptr %this1, i32 0, i32 0
  %0 = load ptr, ptr %m_imp, align 8
  call void @_ZN15model_evaluator3imp5resetEv(ptr noundef nonnull align 8 dereferenceable(2336) %0)
  %1 = load ptr, ptr %p.addr, align 8
  call void @_ZN15model_evaluator11updt_paramsERK10params_ref(ptr noundef nonnull align 8 dereferenceable(8) %this1, ptr noundef nonnull align 8 dereferenceable(8) %1)
  ret void
}

; Function Attrs: mustprogress nounwind uwtable
define linkonce_odr hidden void @_ZN10params_refC2Ev(ptr noundef nonnull align 8 dereferenceable(8) %this) unnamed_addr #5 comdat align 2 {
entry:
  %this.addr = alloca ptr, align 8
  store ptr %this, ptr %this.addr, align 8
  %this1 = load ptr, ptr %this.addr, align 8
  %m_params = getelementptr inbounds %class.params_ref, ptr %this1, i32 0, i32 0
  store ptr null, ptr %m_params, align 8
  ret void
}

; Function Attrs: mustprogress nounwind uwtable
define linkonce_odr hidden noundef nonnull align 8 dereferenceable(1800) ptr @_ZN12rewriter_tplIN3mev13evaluator_cfgEE3cfgEv(ptr noundef nonnull align 8 dereferenceable(536) %this) #5 comdat align 2 {
entry:
  %this.addr = alloca ptr, align 8
  store ptr %this, ptr %this.addr, align 8
  %this1 = load ptr, ptr %this.addr, align 8
  %m_cfg = getelementptr inbounds %class.rewriter_tpl, ptr %this1, i32 0, i32 1
  %0 = load ptr, ptr %m_cfg, align 8
  ret ptr %0
}

; Function Attrs: mustprogress uwtable
define hidden void @_ZN15model_evaluator20set_model_completionEb(ptr noundef nonnull align 8 dereferenceable(8) %this, i1 noundef zeroext %f) #4 align 2 personality ptr @__gxx_personality_v0 {
entry:
  %this.addr = alloca ptr, align 8
  %f.addr = alloca i8, align 1
  %ref.tmp = alloca %class.params_ref, align 8
  %exn.slot = alloca ptr, align 8
  %ehselector.slot = alloca i32, align 4
  store ptr %this, ptr %this.addr, align 8
  %frombool = zext i1 %f to i8
  store i8 %frombool, ptr %f.addr, align 1
  %this1 = load ptr, ptr %this.addr, align 8
  %m_imp = getelementptr inbounds %class.model_evaluator, ptr %this1, i32 0, i32 0
  %0 = load ptr, ptr %m_imp, align 8
  %call = call noundef nonnull align 8 dereferenceable(1800) ptr @_ZN12rewriter_tplIN3mev13evaluator_cfgEE3cfgEv(ptr noundef nonnull align 8 dereferenceable(536) %0)
  %m_model_completion = getelementptr inbounds %"struct.mev::evaluator_cfg", ptr %call, i32 0, i32 18
  %1 = load i8, ptr %m_model_completion, align 4
  %tobool = trunc i8 %1 to i1
  %conv = zext i1 %tobool to i32
  %2 = load i8, ptr %f.addr, align 1
  %tobool2 = trunc i8 %2 to i1
  %conv3 = zext i1 %tobool2 to i32
  %cmp = icmp ne i32 %conv, %conv3
  br i1 %cmp, label %if.then, label %if.end

if.then:                                          ; preds = %entry
  call void @_ZN10params_refC2Ev(ptr noundef nonnull align 8 dereferenceable(8) %ref.tmp)
  invoke void @_ZN15model_evaluator5resetERK10params_ref(ptr noundef nonnull align 8 dereferenceable(8) %this1, ptr noundef nonnull align 8 dereferenceable(8) %ref.tmp)
          to label %invoke.cont unwind label %lpad

invoke.cont:                                      ; preds = %if.then
  call void @_ZN10params_refD1Ev(ptr noundef nonnull align 8 dereferenceable(8) %ref.tmp) #3
  %3 = load i8, ptr %f.addr, align 1
  %tobool4 = trunc i8 %3 to i1
  %m_imp5 = getelementptr inbounds %class.model_evaluator, ptr %this1, i32 0, i32 0
  %4 = load ptr, ptr %m_imp5, align 8
  %call6 = call noundef nonnull align 8 dereferenceable(1800) ptr @_ZN12rewriter_tplIN3mev13evaluator_cfgEE3cfgEv(ptr noundef nonnull align 8 dereferenceable(536) %4)
  %m_model_completion7 = getelementptr inbounds %"struct.mev::evaluator_cfg", ptr %call6, i32 0, i32 18
  %frombool8 = zext i1 %tobool4 to i8
  store i8 %frombool8, ptr %m_model_completion7, align 4
  br label %if.end

lpad:                                             ; preds = %if.then
  %5 = landingpad { ptr, i32 }
          cleanup
  %6 = extractvalue { ptr, i32 } %5, 0
  store ptr %6, ptr %exn.slot, align 8
  %7 = extractvalue { ptr, i32 } %5, 1
  store i32 %7, ptr %ehselector.slot, align 4
  call void @_ZN10params_refD1Ev(ptr noundef nonnull align 8 dereferenceable(8) %ref.tmp) #3
  br label %eh.resume

if.end:                                           ; preds = %invoke.cont, %entry
  ret void

eh.resume:                                        ; preds = %lpad
  %exn = load ptr, ptr %exn.slot, align 8
  %sel = load i32, ptr %ehselector.slot, align 4
  %lpad.val = insertvalue { ptr, i32 } poison, ptr %exn, 0
  %lpad.val9 = insertvalue { ptr, i32 } %lpad.val, i32 %sel, 1
  resume { ptr, i32 } %lpad.val9
}