; Function Attrs: mustprogress uwtable
define hidden void @_ZN15model_evaluator20set_model_completionEb(ptr nocapture noundef nonnull readonly align 8 dereferenceable(8) %this, i1 noundef zeroext %f) local_unnamed_addr #3 align 2 personality ptr @__gxx_personality_v0 {
entry:
  %ref.tmp = alloca %class.params_ref, align 8
  %frombool = zext i1 %f to i8
  %0 = load ptr, ptr %this, align 8
  %m_cfg.i = getelementptr inbounds i8, ptr %0, i64 144
  %1 = load ptr, ptr %m_cfg.i, align 8
  %m_model_completion = getelementptr inbounds i8, ptr %1, i64 1756
  %2 = load i8, ptr %m_model_completion, align 4
  %3 = and i8 %2, 1
  %4 = icmp eq i8 %3, 0
  %cmp.not = xor i1 %4, %f
  br i1 %cmp.not, label %if.end, label %if.then

if.then:                                          ; preds = %entry
  store ptr null, ptr %ref.tmp, align 8
  invoke void @_ZN15model_evaluator3imp5resetEv(ptr noundef nonnull align 8 dereferenceable(2336) %0)
          to label %.noexc unwind label %lpad

.noexc:                                           ; preds = %if.then
  %5 = load ptr, ptr %this, align 8
  %m_cfg.i.i.i = getelementptr inbounds i8, ptr %5, i64 144
  %6 = load ptr, ptr %m_cfg.i.i.i, align 8
  invoke void @_ZN3mev13evaluator_cfg11updt_paramsERK10params_ref(ptr noundef nonnull align 8 dereferenceable(1800) %6, ptr noundef nonnull align 8 dereferenceable(8) %ref.tmp)
          to label %invoke.cont unwind label %lpad

invoke.cont:                                      ; preds = %.noexc
  call void @_ZN10params_refD1Ev(ptr noundef nonnull align 8 dereferenceable(8) %ref.tmp) #18
  %7 = load ptr, ptr %this, align 8
  %m_cfg.i3 = getelementptr inbounds i8, ptr %7, i64 144
  %8 = load ptr, ptr %m_cfg.i3, align 8
  %m_model_completion7 = getelementptr inbounds i8, ptr %8, i64 1756
  store i8 %frombool, ptr %m_model_completion7, align 4
  br label %if.end

lpad:                                             ; preds = %.noexc, %if.then
  %9 = landingpad { ptr, i32 }
          cleanup
  call void @_ZN10params_refD1Ev(ptr noundef nonnull align 8 dereferenceable(8) %ref.tmp) #18
  resume { ptr, i32 } %9

if.end:                                           ; preds = %invoke.cont, %entry
  ret void
}